target datalayout = "e-m:e-p270:32:32-p271:32:32-p272:64:64-i64:64-i128:128-f80:128-n8:16:32:64-S128"
target triple = "x86_64-unknown-linux-gnu"

%class.b3AngularLimit = type <{ float, float, float, float, float, float, float, i8, [3 x i8] }>

; Function Attrs: mustprogress nounwind uwtable
define linkonce_odr dso_local noundef float @_Z6b3Fmodff(float noundef %x, float noundef %y) #1 comdat {
entry:
  %x.addr = alloca float, align 4
  %y.addr = alloca float, align 4
  store float %x, ptr %x.addr, align 4
  store float %y, ptr %y.addr, align 4
  %0 = load float, ptr %x.addr, align 4
  %1 = load float, ptr %y.addr, align 4
  %call = call float @fmodf(float noundef %0, float noundef %1) #5
  ret float %call
}

; Function Attrs: mustprogress uwtable
define linkonce_odr dso_local noundef float @_Z16b3NormalizeAnglef(float noundef %angleInRadians) #0 comdat {
entry:
  %retval = alloca float, align 4
  %angleInRadians.addr = alloca float, align 4
  store float %angleInRadians, ptr %angleInRadians.addr, align 4
  %0 = load float, ptr %angleInRadians.addr, align 4
  %call = call noundef float @_Z6b3Fmodff(float noundef %0, float noundef 0x401921FB60000000)
  store float %call, ptr %angleInRadians.addr, align 4
  %1 = load float, ptr %angleInRadians.addr, align 4
  %cmp = fcmp olt float %1, 0xC00921FB60000000
  br i1 %cmp, label %if.then, label %if.else

if.then:                                          ; preds = %entry
  %2 = load float, ptr %angleInRadians.addr, align 4
  %add = fadd float %2, 0x401921FB60000000
  store float %add, ptr %retval, align 4
  br label %return

if.else:                                          ; preds = %entry
  %3 = load float, ptr %angleInRadians.addr, align 4
  %cmp1 = fcmp ogt float %3, 0x400921FB60000000
  br i1 %cmp1, label %if.then2, label %if.else3

if.then2:                                         ; preds = %if.else
  %4 = load float, ptr %angleInRadians.addr, align 4
  %sub = fsub float %4, 0x401921FB60000000
  store float %sub, ptr %retval, align 4
  br label %return

if.else3:                                         ; preds = %if.else
  %5 = load float, ptr %angleInRadians.addr, align 4
  store float %5, ptr %retval, align 4
  br label %return

return:                                           ; preds = %if.else3, %if.then2, %if.then
  %6 = load float, ptr %retval, align 4
  ret float %6
}

; Function Attrs: mustprogress uwtable
define dso_local void @_ZN14b3AngularLimit3setEfffff(ptr noundef nonnull align 4 dereferenceable(29) %this, float noundef %low, float noundef %high, float noundef %_softness, float noundef %_biasFactor, float noundef %_relaxationFactor) #0 align 2 {
entry:
  %this.addr = alloca ptr, align 8
  %low.addr = alloca float, align 4
  %high.addr = alloca float, align 4
  %_softness.addr = alloca float, align 4
  %_biasFactor.addr = alloca float, align 4
  %_relaxationFactor.addr = alloca float, align 4
  store ptr %this, ptr %this.addr, align 8
  store float %low, ptr %low.addr, align 4
  store float %high, ptr %high.addr, align 4
  store float %_softness, ptr %_softness.addr, align 4
  store float %_biasFactor, ptr %_biasFactor.addr, align 4
  store float %_relaxationFactor, ptr %_relaxationFactor.addr, align 4
  %this1 = load ptr, ptr %this.addr, align 8
  %0 = load float, ptr %high.addr, align 4
  %1 = load float, ptr %low.addr, align 4
  %sub = fsub float %0, %1
  %div = fdiv float %sub, 2.000000e+00
  %m_halfRange = getelementptr inbounds %class.b3AngularLimit, ptr %this1, i32 0, i32 1
  store float %div, ptr %m_halfRange, align 4
  %2 = load float, ptr %low.addr, align 4
  %m_halfRange2 = getelementptr inbounds %class.b3AngularLimit, ptr %this1, i32 0, i32 1
  %3 = load float, ptr %m_halfRange2, align 4
  %add = fadd float %2, %3
  %call = call noundef float @_Z16b3NormalizeAnglef(float noundef %add)
  %m_center = getelementptr inbounds %class.b3AngularLimit, ptr %this1, i32 0, i32 0
  store float %call, ptr %m_center, align 4
  %4 = load float, ptr %_softness.addr, align 4
  %m_softness = getelementptr inbounds %class.b3AngularLimit, ptr %this1, i32 0, i32 2
  store float %4, ptr %m_softness, align 4
  %5 = load float, ptr %_biasFactor.addr, align 4
  %m_biasFactor = getelementptr inbounds %class.b3AngularLimit, ptr %this1, i32 0, i32 3
  store float %5, ptr %m_biasFactor, align 4
  %6 = load float, ptr %_relaxationFactor.addr, align 4
  %m_relaxationFactor = getelementptr inbounds %class.b3AngularLimit, ptr %this1, i32 0, i32 4
  store float %6, ptr %m_relaxationFactor, align 4
  ret void
}