; Function Attrs: mustprogress nofree nounwind willreturn memory(write) uwtable
define dso_local void @_ZN14b3AngularLimit3setEfffff(ptr nocapture noundef nonnull writeonly align 4 dereferenceable(29) %this, float noundef %low, float noundef %high, float noundef %_softness, float noundef %_biasFactor, float noundef %_relaxationFactor) local_unnamed_addr #2 align 2 {
entry:
  %sub = fsub float %high, %low
  %div = fmul float %sub, 5.000000e-01
  %m_halfRange = getelementptr inbounds i8, ptr %this, i64 4
  store float %div, ptr %m_halfRange, align 4
  %add = fadd float %div, %low
  %call.i.i = tail call noundef float @fmodf(float noundef %add, float noundef 0x401921FB60000000) #9
  %cmp.i = fcmp olt float %call.i.i, 0xC00921FB60000000
  br i1 %cmp.i, label %if.then.i, label %if.else.i

if.then.i:                                        ; preds = %entry
  %add.i = fadd float %call.i.i, 0x401921FB60000000
  br label %_Z16b3NormalizeAnglef.exit

if.else.i:                                        ; preds = %entry
  %cmp1.i = fcmp ogt float %call.i.i, 0x400921FB60000000
  br i1 %cmp1.i, label %if.then2.i, label %_Z16b3NormalizeAnglef.exit

if.then2.i:                                       ; preds = %if.else.i
  %sub.i = fadd float %call.i.i, 0xC01921FB60000000
  br label %_Z16b3NormalizeAnglef.exit

_Z16b3NormalizeAnglef.exit:                       ; preds = %if.then.i, %if.else.i, %if.then2.i
  %retval.0.i = phi float [ %add.i, %if.then.i ], [ %sub.i, %if.then2.i ], [ %call.i.i, %if.else.i ]
  store float %retval.0.i, ptr %this, align 4
  %m_softness = getelementptr inbounds i8, ptr %this, i64 8
  store float %_softness, ptr %m_softness, align 4
  %m_biasFactor = getelementptr inbounds i8, ptr %this, i64 12
  store float %_biasFactor, ptr %m_biasFactor, align 4
  %m_relaxationFactor = getelementptr inbounds i8, ptr %this, i64 16
  store float %_relaxationFactor, ptr %m_relaxationFactor, align 4
  ret void
}